; Function Attrs: mustprogress nofree nounwind uwtable
define void @_ZN17double_conversion6Bignum5AlignERKS0_(ptr noundef nonnull align 4 captures(none) dereferenceable(516) %0, ptr noundef nonnull readonly align 4 captures(none) dereferenceable(516) %1) local_unnamed_addr #5 align 2 {
  %3 = getelementptr inbounds nuw i8, ptr %0, i64 2
  %4 = load i16, ptr %3, align 2, !tbaa !8
  %5 = getelementptr inbounds nuw i8, ptr %1, i64 2
  %6 = load i16, ptr %5, align 2, !tbaa !8
  %7 = icmp sgt i16 %4, %6
  br i1 %7, label %8, label %33

8:                                                ; preds = %2
  %9 = sext i16 %6 to i32
  %10 = sext i16 %4 to i32
  %11 = sub nsw i32 %10, %9
  %12 = load i16, ptr %0, align 4, !tbaa !3
  %13 = sext i16 %12 to i32
  %14 = add nsw i32 %11, %13
  %15 = icmp sgt i32 %14, 128
  br i1 %15, label %20, label %_ZN17double_conversion6Bignum14EnsureCapacityEi.exit.preheader

_ZN17double_conversion6Bignum14EnsureCapacityEi.exit.preheader: ; preds = %8
  %16 = icmp sgt i16 %12, 0
  br i1 %16, label %.lr.ph, label %.preheader

.lr.ph:                                           ; preds = %_ZN17double_conversion6Bignum14EnsureCapacityEi.exit.preheader
  %17 = getelementptr inbounds nuw i8, ptr %0, i64 4
  %18 = zext nneg i16 %12 to i64
  %19 = sext i32 %11 to i64
  br label %_ZN17double_conversion6Bignum14EnsureCapacityEi.exit

20:                                               ; preds = %8
  tail call void @abort() #12
  unreachable

.preheader:                                       ; preds = %_ZN17double_conversion6Bignum14EnsureCapacityEi.exit, %_ZN17double_conversion6Bignum14EnsureCapacityEi.exit.preheader
  %21 = icmp sgt i32 %11, 0
  br i1 %21, label %.lr.ph20, label %._crit_edge

.lr.ph20:                                         ; preds = %.preheader
  %22 = getelementptr inbounds nuw i8, ptr %0, i64 4
  %23 = zext nneg i32 %11 to i64
  %24 = shl nuw nsw i64 %23, 2
  tail call void @llvm.memset.p0.i64(ptr nonnull align 4 %22, i8 0, i64 %24, i1 false), !tbaa !9
  br label %._crit_edge

_ZN17double_conversion6Bignum14EnsureCapacityEi.exit: ; preds = %.lr.ph, %_ZN17double_conversion6Bignum14EnsureCapacityEi.exit
  %indvars.iv = phi i64 [ %18, %.lr.ph ], [ %indvars.iv.next, %_ZN17double_conversion6Bignum14EnsureCapacityEi.exit ]
  %indvars.iv.next = add nsw i64 %indvars.iv, -1
  %25 = getelementptr inbounds nuw [128 x i32], ptr %17, i64 0, i64 %indvars.iv.next
  %26 = load i32, ptr %25, align 4, !tbaa !9
  %27 = add nsw i64 %indvars.iv.next, %19
  %28 = getelementptr inbounds [128 x i32], ptr %17, i64 0, i64 %27
  store i32 %26, ptr %28, align 4, !tbaa !9
  %29 = icmp samesign ugt i64 %indvars.iv, 1
  br i1 %29, label %_ZN17double_conversion6Bignum14EnsureCapacityEi.exit, label %.preheader, !llvm.loop !26

._crit_edge:                                      ; preds = %.lr.ph20, %.preheader
  %30 = trunc i32 %11 to i16
  %31 = add i16 %12, %30
  store i16 %31, ptr %0, align 4, !tbaa !3
  %32 = sub i16 %4, %30
  store i16 %32, ptr %3, align 2, !tbaa !8
  br label %33

33:                                               ; preds = %._crit_edge, %2
  ret void
}